target datalayout = "e-m:e-p270:32:32-p271:32:32-p272:64:64-i64:64-i128:128-f80:128-n8:16:32:64-S128"
target triple = "x86_64-pc-linux-gnu"

%"class.net::QuicSession" = type <{ %"class.net::QuicConnectionVisitorInterface", %"class.std::map", ptr, %"class.std::vector", %"class.net::QuicConfig", i64, i64, %"class.base::SmallMap", %"class.base::SmallMap.15", i32, [4 x i8], %"class.std::unordered_set", %"class.std::unordered_set", %"class.net::QuicWriteBlockedList", i32, [4 x i8], i64, i64, i64, i32, [4 x i8], %"class.net::QuicFlowController", i32, [4 x i8] }>
%"class.net::QuicConnectionVisitorInterface" = type { ptr }
%"class.std::map" = type { %"class.std::_Rb_tree" }
%"class.std::_Rb_tree" = type { %"struct.std::_Rb_tree<unsigned int, std::pair<const unsigned int, unsigned long>, std::_Select1st<std::pair<const unsigned int, unsigned long>>, std::less<unsigned int>>::_Rb_tree_impl" }
%"struct.std::_Rb_tree<unsigned int, std::pair<const unsigned int, unsigned long>, std::_Select1st<std::pair<const unsigned int, unsigned long>>, std::less<unsigned int>>::_Rb_tree_impl" = type { [8 x i8], %"struct.std::_Rb_tree_header" }
%"struct.std::_Rb_tree_header" = type { %"struct.std::_Rb_tree_node_base", i64 }
%"struct.std::_Rb_tree_node_base" = type { i32, ptr, ptr, ptr }
%"class.std::vector" = type { %"struct.std::_Vector_base" }
%"struct.std::_Vector_base" = type { %"struct.std::_Vector_base<net::ReliableQuicStream *, std::allocator<net::ReliableQuicStream *>>::_Vector_impl" }
%"struct.std::_Vector_base<net::ReliableQuicStream *, std::allocator<net::ReliableQuicStream *>>::_Vector_impl" = type { %"struct.std::_Vector_base<net::ReliableQuicStream *, std::allocator<net::ReliableQuicStream *>>::_Vector_impl_data" }
%"struct.std::_Vector_base<net::ReliableQuicStream *, std::allocator<net::ReliableQuicStream *>>::_Vector_impl_data" = type { ptr, ptr, ptr }
%"class.net::QuicConfig" = type { %"class.net::QuicTime::Delta", %"class.net::QuicTime::Delta", i64, %"class.net::QuicFixedTagVector", %"class.net::QuicNegotiableUint32", %"class.net::QuicNegotiableUint32", %"class.net::QuicNegotiableUint32", %"class.net::QuicFixedUint32", %"class.net::QuicFixedUint32", %"class.net::QuicFixedUint32", %"class.net::QuicFixedUint32", %"class.net::QuicFixedUint32", %"class.net::QuicFixedUint32", %"class.net::QuicNegotiableUint32", %"class.net::QuicFixedUint32", %"class.net::QuicFixedIPEndPoint", %"class.net::QuicFixedUint32" }
%"class.net::QuicTime::Delta" = type { %"class.base::TimeDelta", i64 }
%"class.base::TimeDelta" = type { i64 }
%"class.net::QuicFixedTagVector" = type <{ %"class.net::QuicConfigValue", %"class.std::vector.3", i8, [7 x i8], %"class.std::vector.3", i8, [7 x i8] }>
%"class.net::QuicConfigValue" = type { ptr, i32, i32 }
%"class.std::vector.3" = type { %"struct.std::_Vector_base.4" }
%"struct.std::_Vector_base.4" = type { %"struct.std::_Vector_base<unsigned int, std::allocator<unsigned int>>::_Vector_impl" }
%"struct.std::_Vector_base<unsigned int, std::allocator<unsigned int>>::_Vector_impl" = type { %"struct.std::_Vector_base<unsigned int, std::allocator<unsigned int>>::_Vector_impl_data" }
%"struct.std::_Vector_base<unsigned int, std::allocator<unsigned int>>::_Vector_impl_data" = type { ptr, ptr, ptr }
%"class.net::QuicNegotiableUint32" = type { %"class.net::QuicNegotiableValue.base", i32, i32, i32 }
%"class.net::QuicNegotiableValue.base" = type <{ %"class.net::QuicConfigValue", i8 }>
%"class.net::QuicFixedIPEndPoint" = type <{ %"class.net::QuicConfigValue", %"class.net::IPEndPoint", i8, [7 x i8], %"class.net::IPEndPoint", i8, [7 x i8] }>
%"class.net::IPEndPoint" = type <{ %"class.net::IPAddress", i16, [6 x i8] }>
%"class.net::IPAddress" = type { %"class.std::vector.8" }
%"class.std::vector.8" = type { %"struct.std::_Vector_base.9" }
%"struct.std::_Vector_base.9" = type { %"struct.std::_Vector_base<unsigned char, std::allocator<unsigned char>>::_Vector_impl" }
%"struct.std::_Vector_base<unsigned char, std::allocator<unsigned char>>::_Vector_impl" = type { %"struct.std::_Vector_base<unsigned char, std::allocator<unsigned char>>::_Vector_impl_data" }
%"struct.std::_Vector_base<unsigned char, std::allocator<unsigned char>>::_Vector_impl_data" = type { ptr, ptr, ptr }
%"class.net::QuicFixedUint32" = type <{ %"class.net::QuicConfigValue", i32, i8, [3 x i8], i32, i8, [3 x i8] }>
%"class.base::SmallMap" = type { i32, [4 x i8], %union.anon }
%union.anon = type { %"class.base::ManualConstructor.13" }
%"class.base::ManualConstructor.13" = type { %"class.base::AlignedMemory.14" }
%"class.base::AlignedMemory.14" = type { [56 x i8] }
%"class.base::SmallMap.15" = type { i32, [4 x i8], %union.anon.16 }
%union.anon.16 = type { [10 x %"class.base::ManualConstructor"] }
%"class.base::ManualConstructor" = type { %"class.base::AlignedMemory" }
%"class.base::AlignedMemory" = type { [16 x i8] }
%"class.std::unordered_set" = type { %"class.std::_Hashtable" }
%"class.std::_Hashtable" = type { ptr, i64, %"struct.std::__detail::_Hash_node_base", i64, %"struct.std::__detail::_Prime_rehash_policy", ptr }
%"struct.std::__detail::_Hash_node_base" = type { ptr }
%"struct.std::__detail::_Prime_rehash_policy" = type { float, i64 }
%"class.net::QuicWriteBlockedList" = type <{ %"class.net::PriorityWriteScheduler", [8 x i32], [8 x i32], i8, i8, i8, [5 x i8] }>
%"class.net::PriorityWriteScheduler" = type { %"class.net::WriteScheduler", i64, [8 x %"struct.net::PriorityWriteScheduler<unsigned int>::PriorityInfo"], %"class.std::unordered_map" }
%"class.net::WriteScheduler" = type { ptr }
%"struct.net::PriorityWriteScheduler<unsigned int>::PriorityInfo" = type { %"class.std::deque", i64 }
%"class.std::deque" = type { %"class.std::_Deque_base" }
%"class.std::_Deque_base" = type { %"struct.std::_Deque_base<net::PriorityWriteScheduler<unsigned int>::StreamInfo *, std::allocator<net::PriorityWriteScheduler<unsigned int>::StreamInfo *>>::_Deque_impl" }
%"struct.std::_Deque_base<net::PriorityWriteScheduler<unsigned int>::StreamInfo *, std::allocator<net::PriorityWriteScheduler<unsigned int>::StreamInfo *>>::_Deque_impl" = type { %"struct.std::_Deque_base<net::PriorityWriteScheduler<unsigned int>::StreamInfo *, std::allocator<net::PriorityWriteScheduler<unsigned int>::StreamInfo *>>::_Deque_impl_data" }
%"struct.std::_Deque_base<net::PriorityWriteScheduler<unsigned int>::StreamInfo *, std::allocator<net::PriorityWriteScheduler<unsigned int>::StreamInfo *>>::_Deque_impl_data" = type { ptr, i64, %"struct.std::_Deque_iterator", %"struct.std::_Deque_iterator" }
%"struct.std::_Deque_iterator" = type { ptr, ptr, ptr, ptr }
%"class.std::unordered_map" = type { %"class.std::_Hashtable.25" }
%"class.std::_Hashtable.25" = type { ptr, i64, %"struct.std::__detail::_Hash_node_base", i64, %"struct.std::__detail::_Prime_rehash_policy", ptr }
%"class.net::QuicFlowController" = type { ptr, i32, i32, i64, i64, i64, i64, i64, i64, i64, i8, i64, %"class.net::QuicTime" }
%"class.net::QuicTime" = type { i64 }

; Function Attrs: mustprogress nounwind uwtable
define linkonce_odr noundef zeroext i1 @_ZNK3net22PriorityWriteSchedulerIjE15HasReadyStreamsEv(ptr noundef nonnull align 8 dereferenceable(776) %0) unnamed_addr #2 comdat align 2 {
  %2 = alloca ptr, align 8
  store ptr %0, ptr %2, align 8, !tbaa !507
  %3 = load ptr, ptr %2, align 8
  %4 = getelementptr inbounds nuw %"class.net::PriorityWriteScheduler", ptr %3, i32 0, i32 1
  %5 = load i64, ptr %4, align 8, !tbaa !509
  %6 = icmp ugt i64 %5, 0
  ret i1 %6
}

; Function Attrs: mustprogress uwtable
define linkonce_odr noundef zeroext i1 @_ZNK3net20QuicWriteBlockedList26HasWriteBlockedDataStreamsEv(ptr noundef nonnull align 8 dereferenceable(843) %0) #0 comdat align 2 {
  %2 = alloca ptr, align 8
  store ptr %0, ptr %2, align 8, !tbaa !309
  %3 = load ptr, ptr %2, align 8
  %4 = getelementptr inbounds nuw %"class.net::QuicWriteBlockedList", ptr %3, i32 0, i32 0
  %5 = call noundef zeroext i1 @_ZNK3net22PriorityWriteSchedulerIjE15HasReadyStreamsEv(ptr noundef nonnull align 8 dereferenceable(776) %4)
  ret i1 %5
}

; Function Attrs: mustprogress nounwind uwtable
define linkonce_odr noundef zeroext i1 @_ZNK3net20QuicWriteBlockedList36HasWriteBlockedCryptoOrHeadersStreamEv(ptr noundef nonnull align 8 dereferenceable(843) %0) #2 comdat align 2 {
  %2 = alloca ptr, align 8
  store ptr %0, ptr %2, align 8, !tbaa !309
  %3 = load ptr, ptr %2, align 8
  %4 = getelementptr inbounds nuw %"class.net::QuicWriteBlockedList", ptr %3, i32 0, i32 4
  %5 = load i8, ptr %4, align 1, !tbaa !311, !range !261, !noundef !262
  %6 = trunc i8 %5 to i1
  br i1 %6, label %11, label %7

7:                                                ; preds = %1
  %8 = getelementptr inbounds nuw %"class.net::QuicWriteBlockedList", ptr %3, i32 0, i32 5
  %9 = load i8, ptr %8, align 2, !tbaa !312, !range !261, !noundef !262
  %10 = trunc i8 %9 to i1
  br label %11

11:                                               ; preds = %7, %1
  %12 = phi i1 [ true, %1 ], [ %10, %7 ]
  ret i1 %12
}

; Function Attrs: mustprogress uwtable
define noundef zeroext i1 @_ZNK3net11QuicSession14HasDataToWriteEv(ptr noundef nonnull align 8 dereferenceable(2044) %0) #0 align 2 {
  %2 = alloca ptr, align 8
  store ptr %0, ptr %2, align 8, !tbaa !3
  %3 = load ptr, ptr %2, align 8
  %4 = getelementptr inbounds nuw %"class.net::QuicSession", ptr %3, i32 0, i32 13
  %5 = call noundef zeroext i1 @_ZNK3net20QuicWriteBlockedList36HasWriteBlockedCryptoOrHeadersStreamEv(ptr noundef nonnull align 8 dereferenceable(843) %4)
  br i1 %5, label %13, label %6

6:                                                ; preds = %1
  %7 = getelementptr inbounds nuw %"class.net::QuicSession", ptr %3, i32 0, i32 13
  %8 = call noundef zeroext i1 @_ZNK3net20QuicWriteBlockedList26HasWriteBlockedDataStreamsEv(ptr noundef nonnull align 8 dereferenceable(843) %7)
  br i1 %8, label %13, label %9

9:                                                ; preds = %6
  %10 = getelementptr inbounds nuw %"class.net::QuicSession", ptr %3, i32 0, i32 2
  %11 = load ptr, ptr %10, align 8, !tbaa !14
  %12 = call noundef zeroext i1 @_ZNK3net14QuicConnection13HasQueuedDataEv(ptr noundef nonnull align 8 dereferenceable(3372) %11)
  br label %13

13:                                               ; preds = %9, %6, %1
  %14 = phi i1 [ true, %6 ], [ true, %1 ], [ %12, %9 ]
  ret i1 %14
}