; Function Attrs: mustprogress uwtable
define noundef zeroext i1 @_ZNK3net11QuicSession14HasDataToWriteEv(ptr noundef nonnull readonly align 8 captures(none) dereferenceable(2044) %0) local_unnamed_addr #0 align 2 {
  %2 = getelementptr inbounds nuw i8, ptr %0, i64 1897
  %3 = load i8, ptr %2, align 1, !tbaa !286, !range !256, !noundef !257
  %4 = trunc nuw i8 %3 to i1
  %5 = getelementptr inbounds nuw i8, ptr %0, i64 1898
  %6 = load i8, ptr %5, align 2, !range !256
  %7 = trunc nuw i8 %6 to i1
  %8 = select i1 %4, i1 true, i1 %7
  %9 = getelementptr inbounds nuw i8, ptr %0, i64 1064
  %10 = load i64, ptr %9, align 8
  %11 = icmp ne i64 %10, 0
  %or.cond = select i1 %8, i1 true, i1 %11
  br i1 %or.cond, label %16, label %12

12:                                               ; preds = %1
  %13 = getelementptr inbounds nuw i8, ptr %0, i64 56
  %14 = load ptr, ptr %13, align 8, !tbaa !18
  %15 = tail call noundef zeroext i1 @_ZNK3net14QuicConnection13HasQueuedDataEv(ptr noundef nonnull align 8 dereferenceable(3372) %14)
  br label %16

16:                                               ; preds = %12, %1
  %17 = phi i1 [ true, %1 ], [ %15, %12 ]
  ret i1 %17
}